; Function Attrs: mustprogress nounwind uwtable
define dso_local noundef zeroext i1 @_ZNSt3__111timed_mutex8try_lockEv(ptr noundef nonnull align 8 dereferenceable(89) %0) local_unnamed_addr #3 align 2 personality ptr @__gxx_personality_v0 {
  %2 = tail call i32 @pthread_mutex_trylock(ptr noundef nonnull align 8 dereferenceable(40) %0) #10
  %3 = icmp eq i32 %2, 0
  br i1 %3, label %4, label %_ZNSt3__111unique_lockINS_5mutexEED2B8ne210000Ev.exit

4:                                                ; preds = %1
  %5 = getelementptr inbounds nuw i8, ptr %0, i64 88
  %6 = load i8, ptr %5, align 8, !tbaa !13, !range !17, !noundef !18
  %7 = trunc nuw i8 %6 to i1
  br i1 %7, label %9, label %8

8:                                                ; preds = %4
  store i8 1, ptr %5, align 8, !tbaa !13
  br label %9

9:                                                ; preds = %4, %8
  %.0.ph = xor i1 %7, true
  %10 = tail call noundef i32 @pthread_mutex_unlock(ptr noundef nonnull align 8 dereferenceable(40) %0) #10
  br label %_ZNSt3__111unique_lockINS_5mutexEED2B8ne210000Ev.exit

_ZNSt3__111unique_lockINS_5mutexEED2B8ne210000Ev.exit: ; preds = %1, %9
  %.04 = phi i1 [ %.0.ph, %9 ], [ false, %1 ]
  ret i1 %.04
}